target datalayout = "e-m:e-p270:32:32-p271:32:32-p272:64:64-i64:64-i128:128-f80:128-n8:16:32:64-S128"
target triple = "x86_64-unknown-linux-gnu"

%"class.testing::MatcherDescriberInterface" = type { ptr }
%"class.testing::MatchResultListener" = type { ptr, ptr }
%struct.timeval = type { i64, i64 }
%"class.(anonymous namespace)::TimevalMatcherMatcherP<timeval>::gmock_Impl" = type { %"class.testing::MatcherInterface.118", %struct.timeval }
%"class.testing::MatcherInterface.118" = type { %"class.testing::MatcherDescriberInterface" }

@.str.118 = private unnamed_addr constant [3 x i8] c", \00", align 1
@.str.218 = private unnamed_addr constant [12 x i8] c"expected: {\00", align 1
@.str.219 = private unnamed_addr constant [3 x i8] c"} \00", align 1
@.str.220 = private unnamed_addr constant [10 x i8] c"actual: {\00", align 1
@.str.221 = private unnamed_addr constant [2 x i8] c"}\00", align 1

; Function Attrs: mustprogress uwtable
define linkonce_odr dso_local noundef nonnull align 8 dereferenceable(16) ptr @_ZN7testing19MatchResultListenerlsIA2_cEERS0_RKT_(ptr noundef nonnull align 8 dereferenceable(16) %this, ptr noundef nonnull align 1 dereferenceable(2) %x) #4 comdat align 2 {
entry:
  %this.addr = alloca ptr, align 8
  %x.addr = alloca ptr, align 8
  store ptr %this, ptr %this.addr, align 8
  store ptr %x, ptr %x.addr, align 8
  %this1 = load ptr, ptr %this.addr, align 8
  %stream_ = getelementptr inbounds %"class.testing::MatchResultListener", ptr %this1, i32 0, i32 1
  %0 = load ptr, ptr %stream_, align 8
  %cmp = icmp ne ptr %0, null
  br i1 %cmp, label %if.then, label %if.end

if.then:                                          ; preds = %entry
  %stream_2 = getelementptr inbounds %"class.testing::MatchResultListener", ptr %this1, i32 0, i32 1
  %1 = load ptr, ptr %stream_2, align 8
  %2 = load ptr, ptr %x.addr, align 8
  %arraydecay = getelementptr inbounds [2 x i8], ptr %2, i64 0, i64 0
  %call = call noundef nonnull align 8 dereferenceable(8) ptr @_ZStlsISt11char_traitsIcEERSt13basic_ostreamIcT_ES5_PKc(ptr noundef nonnull align 8 dereferenceable(8) %1, ptr noundef %arraydecay)
  br label %if.end

if.end:                                           ; preds = %if.then, %entry
  ret ptr %this1
}

; Function Attrs: mustprogress uwtable
define linkonce_odr dso_local noundef nonnull align 8 dereferenceable(16) ptr @_ZN7testing19MatchResultListenerlsIA10_cEERS0_RKT_(ptr noundef nonnull align 8 dereferenceable(16) %this, ptr noundef nonnull align 1 dereferenceable(10) %x) #4 comdat align 2 {
entry:
  %this.addr = alloca ptr, align 8
  %x.addr = alloca ptr, align 8
  store ptr %this, ptr %this.addr, align 8
  store ptr %x, ptr %x.addr, align 8
  %this1 = load ptr, ptr %this.addr, align 8
  %stream_ = getelementptr inbounds %"class.testing::MatchResultListener", ptr %this1, i32 0, i32 1
  %0 = load ptr, ptr %stream_, align 8
  %cmp = icmp ne ptr %0, null
  br i1 %cmp, label %if.then, label %if.end

if.then:                                          ; preds = %entry
  %stream_2 = getelementptr inbounds %"class.testing::MatchResultListener", ptr %this1, i32 0, i32 1
  %1 = load ptr, ptr %stream_2, align 8
  %2 = load ptr, ptr %x.addr, align 8
  %arraydecay = getelementptr inbounds [10 x i8], ptr %2, i64 0, i64 0
  %call = call noundef nonnull align 8 dereferenceable(8) ptr @_ZStlsISt11char_traitsIcEERSt13basic_ostreamIcT_ES5_PKc(ptr noundef nonnull align 8 dereferenceable(8) %1, ptr noundef %arraydecay)
  br label %if.end

if.end:                                           ; preds = %if.then, %entry
  ret ptr %this1
}

; Function Attrs: mustprogress uwtable
define linkonce_odr dso_local noundef nonnull align 8 dereferenceable(16) ptr @_ZN7testing19MatchResultListenerlsIA3_cEERS0_RKT_(ptr noundef nonnull align 8 dereferenceable(16) %this, ptr noundef nonnull align 1 dereferenceable(3) %x) #4 comdat align 2 {
entry:
  %this.addr = alloca ptr, align 8
  %x.addr = alloca ptr, align 8
  store ptr %this, ptr %this.addr, align 8
  store ptr %x, ptr %x.addr, align 8
  %this1 = load ptr, ptr %this.addr, align 8
  %stream_ = getelementptr inbounds %"class.testing::MatchResultListener", ptr %this1, i32 0, i32 1
  %0 = load ptr, ptr %stream_, align 8
  %cmp = icmp ne ptr %0, null
  br i1 %cmp, label %if.then, label %if.end

if.then:                                          ; preds = %entry
  %stream_2 = getelementptr inbounds %"class.testing::MatchResultListener", ptr %this1, i32 0, i32 1
  %1 = load ptr, ptr %stream_2, align 8
  %2 = load ptr, ptr %x.addr, align 8
  %arraydecay = getelementptr inbounds [3 x i8], ptr %2, i64 0, i64 0
  %call = call noundef nonnull align 8 dereferenceable(8) ptr @_ZStlsISt11char_traitsIcEERSt13basic_ostreamIcT_ES5_PKc(ptr noundef nonnull align 8 dereferenceable(8) %1, ptr noundef %arraydecay)
  br label %if.end

if.end:                                           ; preds = %if.then, %entry
  ret ptr %this1
}

; Function Attrs: mustprogress uwtable
define linkonce_odr dso_local noundef nonnull align 8 dereferenceable(16) ptr @_ZN7testing19MatchResultListenerlsIlEERS0_RKT_(ptr noundef nonnull align 8 dereferenceable(16) %this, ptr noundef nonnull align 8 dereferenceable(8) %x) #4 comdat align 2 {
entry:
  %this.addr = alloca ptr, align 8
  %x.addr = alloca ptr, align 8
  store ptr %this, ptr %this.addr, align 8
  store ptr %x, ptr %x.addr, align 8
  %this1 = load ptr, ptr %this.addr, align 8
  %stream_ = getelementptr inbounds %"class.testing::MatchResultListener", ptr %this1, i32 0, i32 1
  %0 = load ptr, ptr %stream_, align 8
  %cmp = icmp ne ptr %0, null
  br i1 %cmp, label %if.then, label %if.end

if.then:                                          ; preds = %entry
  %stream_2 = getelementptr inbounds %"class.testing::MatchResultListener", ptr %this1, i32 0, i32 1
  %1 = load ptr, ptr %stream_2, align 8
  %2 = load ptr, ptr %x.addr, align 8
  %3 = load i64, ptr %2, align 8
  %call = call noundef nonnull align 8 dereferenceable(8) ptr @_ZNSolsEl(ptr noundef nonnull align 8 dereferenceable(8) %1, i64 noundef %3)
  br label %if.end

if.end:                                           ; preds = %if.then, %entry
  ret ptr %this1
}

; Function Attrs: mustprogress uwtable
define linkonce_odr dso_local noundef nonnull align 8 dereferenceable(16) ptr @_ZN7testing19MatchResultListenerlsIA12_cEERS0_RKT_(ptr noundef nonnull align 8 dereferenceable(16) %this, ptr noundef nonnull align 1 dereferenceable(12) %x) #4 comdat align 2 {
entry:
  %this.addr = alloca ptr, align 8
  %x.addr = alloca ptr, align 8
  store ptr %this, ptr %this.addr, align 8
  store ptr %x, ptr %x.addr, align 8
  %this1 = load ptr, ptr %this.addr, align 8
  %stream_ = getelementptr inbounds %"class.testing::MatchResultListener", ptr %this1, i32 0, i32 1
  %0 = load ptr, ptr %stream_, align 8
  %cmp = icmp ne ptr %0, null
  br i1 %cmp, label %if.then, label %if.end

if.then:                                          ; preds = %entry
  %stream_2 = getelementptr inbounds %"class.testing::MatchResultListener", ptr %this1, i32 0, i32 1
  %1 = load ptr, ptr %stream_2, align 8
  %2 = load ptr, ptr %x.addr, align 8
  %arraydecay = getelementptr inbounds [12 x i8], ptr %2, i64 0, i64 0
  %call = call noundef nonnull align 8 dereferenceable(8) ptr @_ZStlsISt11char_traitsIcEERSt13basic_ostreamIcT_ES5_PKc(ptr noundef nonnull align 8 dereferenceable(8) %1, ptr noundef %arraydecay)
  br label %if.end

if.end:                                           ; preds = %if.then, %entry
  ret ptr %this1
}

; Function Attrs: mustprogress uwtable
define internal noundef zeroext i1 @_ZNK12_GLOBAL__N_122TimevalMatcherMatcherPI7timevalE10gmock_ImplIRKS1_E15MatchAndExplainES5_PN7testing19MatchResultListenerE(ptr noundef nonnull align 8 dereferenceable(24) %this, ptr noundef nonnull align 8 dereferenceable(16) %arg, ptr noundef %result_listener) unnamed_addr #4 align 2 {
entry:
  %retval = alloca i1, align 1
  %this.addr = alloca ptr, align 8
  %arg.addr = alloca ptr, align 8
  %result_listener.addr = alloca ptr, align 8
  store ptr %this, ptr %this.addr, align 8
  store ptr %arg, ptr %arg.addr, align 8
  store ptr %result_listener, ptr %result_listener.addr, align 8
  %this1 = load ptr, ptr %this.addr, align 8
  %tv = getelementptr inbounds %"class.(anonymous namespace)::TimevalMatcherMatcherP<timeval>::gmock_Impl", ptr %this1, i32 0, i32 1
  %tv_sec = getelementptr inbounds %struct.timeval, ptr %tv, i32 0, i32 0
  %0 = load i64, ptr %tv_sec, align 8
  %1 = load ptr, ptr %arg.addr, align 8
  %tv_sec2 = getelementptr inbounds %struct.timeval, ptr %1, i32 0, i32 0
  %2 = load i64, ptr %tv_sec2, align 8
  %cmp = icmp eq i64 %0, %2
  br i1 %cmp, label %land.lhs.true, label %if.end

land.lhs.true:                                    ; preds = %entry
  %tv3 = getelementptr inbounds %"class.(anonymous namespace)::TimevalMatcherMatcherP<timeval>::gmock_Impl", ptr %this1, i32 0, i32 1
  %tv_usec = getelementptr inbounds %struct.timeval, ptr %tv3, i32 0, i32 1
  %3 = load i64, ptr %tv_usec, align 8
  %4 = load ptr, ptr %arg.addr, align 8
  %tv_usec4 = getelementptr inbounds %struct.timeval, ptr %4, i32 0, i32 1
  %5 = load i64, ptr %tv_usec4, align 8
  %cmp5 = icmp eq i64 %3, %5
  br i1 %cmp5, label %if.then, label %if.end

if.then:                                          ; preds = %land.lhs.true
  store i1 true, ptr %retval, align 1
  br label %return

if.end:                                           ; preds = %land.lhs.true, %entry
  %6 = load ptr, ptr %result_listener.addr, align 8
  %call = call noundef nonnull align 8 dereferenceable(16) ptr @_ZN7testing19MatchResultListenerlsIA12_cEERS0_RKT_(ptr noundef nonnull align 8 dereferenceable(16) %6, ptr noundef nonnull align 1 dereferenceable(12) @.str.218)
  %tv6 = getelementptr inbounds %"class.(anonymous namespace)::TimevalMatcherMatcherP<timeval>::gmock_Impl", ptr %this1, i32 0, i32 1
  %tv_sec7 = getelementptr inbounds %struct.timeval, ptr %tv6, i32 0, i32 0
  %call8 = call noundef nonnull align 8 dereferenceable(16) ptr @_ZN7testing19MatchResultListenerlsIlEERS0_RKT_(ptr noundef nonnull align 8 dereferenceable(16) %call, ptr noundef nonnull align 8 dereferenceable(8) %tv_sec7)
  %call9 = call noundef nonnull align 8 dereferenceable(16) ptr @_ZN7testing19MatchResultListenerlsIA3_cEERS0_RKT_(ptr noundef nonnull align 8 dereferenceable(16) %call8, ptr noundef nonnull align 1 dereferenceable(3) @.str.118)
  %tv10 = getelementptr inbounds %"class.(anonymous namespace)::TimevalMatcherMatcherP<timeval>::gmock_Impl", ptr %this1, i32 0, i32 1
  %tv_usec11 = getelementptr inbounds %struct.timeval, ptr %tv10, i32 0, i32 1
  %call12 = call noundef nonnull align 8 dereferenceable(16) ptr @_ZN7testing19MatchResultListenerlsIlEERS0_RKT_(ptr noundef nonnull align 8 dereferenceable(16) %call9, ptr noundef nonnull align 8 dereferenceable(8) %tv_usec11)
  %call13 = call noundef nonnull align 8 dereferenceable(16) ptr @_ZN7testing19MatchResultListenerlsIA3_cEERS0_RKT_(ptr noundef nonnull align 8 dereferenceable(16) %call12, ptr noundef nonnull align 1 dereferenceable(3) @.str.219)
  %7 = load ptr, ptr %result_listener.addr, align 8
  %call14 = call noundef nonnull align 8 dereferenceable(16) ptr @_ZN7testing19MatchResultListenerlsIA10_cEERS0_RKT_(ptr noundef nonnull align 8 dereferenceable(16) %7, ptr noundef nonnull align 1 dereferenceable(10) @.str.220)
  %8 = load ptr, ptr %arg.addr, align 8
  %tv_sec15 = getelementptr inbounds %struct.timeval, ptr %8, i32 0, i32 0
  %call16 = call noundef nonnull align 8 dereferenceable(16) ptr @_ZN7testing19MatchResultListenerlsIlEERS0_RKT_(ptr noundef nonnull align 8 dereferenceable(16) %call14, ptr noundef nonnull align 8 dereferenceable(8) %tv_sec15)
  %call17 = call noundef nonnull align 8 dereferenceable(16) ptr @_ZN7testing19MatchResultListenerlsIA3_cEERS0_RKT_(ptr noundef nonnull align 8 dereferenceable(16) %call16, ptr noundef nonnull align 1 dereferenceable(3) @.str.118)
  %9 = load ptr, ptr %arg.addr, align 8
  %tv_usec18 = getelementptr inbounds %struct.timeval, ptr %9, i32 0, i32 1
  %call19 = call noundef nonnull align 8 dereferenceable(16) ptr @_ZN7testing19MatchResultListenerlsIlEERS0_RKT_(ptr noundef nonnull align 8 dereferenceable(16) %call17, ptr noundef nonnull align 8 dereferenceable(8) %tv_usec18)
  %call20 = call noundef nonnull align 8 dereferenceable(16) ptr @_ZN7testing19MatchResultListenerlsIA2_cEERS0_RKT_(ptr noundef nonnull align 8 dereferenceable(16) %call19, ptr noundef nonnull align 1 dereferenceable(2) @.str.221)
  store i1 false, ptr %retval, align 1
  br label %return

return:                                           ; preds = %if.end, %if.then
  %10 = load i1, ptr %retval, align 1
  ret i1 %10
}